; Function Attrs: nofree nosync nounwind memory(readwrite, inaccessiblemem: none) uwtable
define void @Gia_ManBuiltInSimResimulateCone_rec(ptr noundef %0, i32 noundef %1) local_unnamed_addr #12 {
  %3 = getelementptr i8, ptr %0, i64 176
  %.val18 = load i32, ptr %3, align 8, !tbaa !132
  %4 = getelementptr i8, ptr %0, i64 616
  %.val19 = load ptr, ptr %4, align 8, !tbaa !133
  %5 = sext i32 %1 to i64
  %6 = getelementptr inbounds i32, ptr %.val19, i64 %5
  %7 = load i32, ptr %6, align 4, !tbaa !37
  %.not = icmp eq i32 %7, %.val18
  br i1 %.not, label %common.ret22, label %8

8:                                                ; preds = %2
  store i32 %.val18, ptr %6, align 4, !tbaa !37
  %9 = getelementptr i8, ptr %0, i64 32
  %.val15 = load ptr, ptr %9, align 8, !tbaa !16
  %10 = getelementptr inbounds %struct.Gia_Obj_t_, ptr %.val15, i64 %5
  %.val = load i64, ptr %10, align 4
  %11 = and i64 %.val, 2684354559
  %narrow.i.not = icmp eq i64 %11, 2684354559
  br i1 %narrow.i.not, label %common.ret22, label %12

common.ret22:                                     ; preds = %8, %2, %12
  ret void

12:                                               ; preds = %8
  %13 = trunc i64 %.val to i32
  %14 = and i32 %13, 536870911
  %15 = sub nsw i32 %1, %14
  tail call void @Gia_ManBuiltInSimResimulateCone_rec(ptr noundef nonnull %0, i32 noundef %15)
  %.val17 = load i64, ptr %10, align 4
  %16 = lshr i64 %.val17, 32
  %17 = trunc nuw i64 %16 to i32
  %18 = and i32 %17, 536870911
  %19 = sub nsw i32 %1, %18
  tail call void @Gia_ManBuiltInSimResimulateCone_rec(ptr noundef nonnull %0, i32 noundef %19)
  tail call void @Gia_ManBuiltInSimPerformInt(ptr noundef nonnull %0, i32 noundef %1)
  br label %common.ret22
}